target datalayout = "e-m:e-p270:32:32-p271:32:32-p272:64:64-i64:64-i128:128-f80:128-n8:16:32:64-S128"
target triple = "x86_64-pc-linux-gnu"

@.str.18 = private unnamed_addr constant [5 x i8] c"char\00", align 1
@.str.19 = private unnamed_addr constant [5 x i8] c"int8\00", align 1
@.str.20 = private unnamed_addr constant [6 x i8] c"uchar\00", align 1
@.str.21 = private unnamed_addr constant [6 x i8] c"uint8\00", align 1
@.str.22 = private unnamed_addr constant [6 x i8] c"short\00", align 1
@.str.23 = private unnamed_addr constant [6 x i8] c"int16\00", align 1
@.str.24 = private unnamed_addr constant [7 x i8] c"ushort\00", align 1
@.str.25 = private unnamed_addr constant [7 x i8] c"uint16\00", align 1
@.str.26 = private unnamed_addr constant [4 x i8] c"int\00", align 1
@.str.27 = private unnamed_addr constant [6 x i8] c"int32\00", align 1
@.str.28 = private unnamed_addr constant [5 x i8] c"uint\00", align 1
@.str.29 = private unnamed_addr constant [7 x i8] c"uint32\00", align 1
@.str.30 = private unnamed_addr constant [6 x i8] c"float\00", align 1
@.str.31 = private unnamed_addr constant [8 x i8] c"float32\00", align 1
@.str.32 = private unnamed_addr constant [7 x i8] c"double\00", align 1
@.str.33 = private unnamed_addr constant [8 x i8] c"float64\00", align 1

; Function Attrs: inlinehint mustprogress nounwind uwtable
define linkonce_odr dso_local noundef zeroext i1 @_ZSteqIcSt11char_traitsIcESaIcEEbRKNSt7__cxx1112basic_stringIT_T0_T1_EEPKS5_(ptr noundef nonnull align 8 dereferenceable(32) %0, ptr noundef %1) #8 comdat {
  %3 = alloca ptr, align 8
  %4 = alloca ptr, align 8
  store ptr %0, ptr %3, align 8, !tbaa !9
  store ptr %1, ptr %4, align 8, !tbaa !75
  %5 = load ptr, ptr %3, align 8, !tbaa !9
  %6 = load ptr, ptr %4, align 8, !tbaa !75
  %7 = call noundef i32 @_ZNKSt7__cxx1112basic_stringIcSt11char_traitsIcESaIcEE7compareEPKc(ptr noundef nonnull align 8 dereferenceable(32) %5, ptr noundef %6) #3
  %8 = icmp eq i32 %7, 0
  ret i1 %8
}

; Function Attrs: mustprogress uwtable
define dso_local noundef i32 @_ZNK5draco9PlyReader21GetDataTypeFromStringERKNSt7__cxx1112basic_stringIcSt11char_traitsIcESaIcEEE(ptr noundef nonnull align 8 dereferenceable(76) %0, ptr noundef nonnull align 8 dereferenceable(32) %1) #4 align 2 {
  %3 = alloca i32, align 4
  %4 = alloca ptr, align 8
  %5 = alloca ptr, align 8
  store ptr %0, ptr %4, align 8, !tbaa !62
  store ptr %1, ptr %5, align 8, !tbaa !9
  %6 = load ptr, ptr %5, align 8, !tbaa !9
  %7 = call noundef zeroext i1 @_ZSteqIcSt11char_traitsIcESaIcEEbRKNSt7__cxx1112basic_stringIT_T0_T1_EEPKS5_(ptr noundef nonnull align 8 dereferenceable(32) %6, ptr noundef @.str.18)
  br i1 %7, label %11, label %8

8:                                                ; preds = %2
  %9 = load ptr, ptr %5, align 8, !tbaa !9
  %10 = call noundef zeroext i1 @_ZSteqIcSt11char_traitsIcESaIcEEbRKNSt7__cxx1112basic_stringIT_T0_T1_EEPKS5_(ptr noundef nonnull align 8 dereferenceable(32) %9, ptr noundef @.str.19)
  br i1 %10, label %11, label %12

11:                                               ; preds = %8, %2
  store i32 1, ptr %3, align 4
  br label %62

12:                                               ; preds = %8
  %13 = load ptr, ptr %5, align 8, !tbaa !9
  %14 = call noundef zeroext i1 @_ZSteqIcSt11char_traitsIcESaIcEEbRKNSt7__cxx1112basic_stringIT_T0_T1_EEPKS5_(ptr noundef nonnull align 8 dereferenceable(32) %13, ptr noundef @.str.20)
  br i1 %14, label %18, label %15

15:                                               ; preds = %12
  %16 = load ptr, ptr %5, align 8, !tbaa !9
  %17 = call noundef zeroext i1 @_ZSteqIcSt11char_traitsIcESaIcEEbRKNSt7__cxx1112basic_stringIT_T0_T1_EEPKS5_(ptr noundef nonnull align 8 dereferenceable(32) %16, ptr noundef @.str.21)
  br i1 %17, label %18, label %19

18:                                               ; preds = %15, %12
  store i32 2, ptr %3, align 4
  br label %62

19:                                               ; preds = %15
  %20 = load ptr, ptr %5, align 8, !tbaa !9
  %21 = call noundef zeroext i1 @_ZSteqIcSt11char_traitsIcESaIcEEbRKNSt7__cxx1112basic_stringIT_T0_T1_EEPKS5_(ptr noundef nonnull align 8 dereferenceable(32) %20, ptr noundef @.str.22)
  br i1 %21, label %25, label %22

22:                                               ; preds = %19
  %23 = load ptr, ptr %5, align 8, !tbaa !9
  %24 = call noundef zeroext i1 @_ZSteqIcSt11char_traitsIcESaIcEEbRKNSt7__cxx1112basic_stringIT_T0_T1_EEPKS5_(ptr noundef nonnull align 8 dereferenceable(32) %23, ptr noundef @.str.23)
  br i1 %24, label %25, label %26

25:                                               ; preds = %22, %19
  store i32 3, ptr %3, align 4
  br label %62

26:                                               ; preds = %22
  %27 = load ptr, ptr %5, align 8, !tbaa !9
  %28 = call noundef zeroext i1 @_ZSteqIcSt11char_traitsIcESaIcEEbRKNSt7__cxx1112basic_stringIT_T0_T1_EEPKS5_(ptr noundef nonnull align 8 dereferenceable(32) %27, ptr noundef @.str.24)
  br i1 %28, label %32, label %29

29:                                               ; preds = %26
  %30 = load ptr, ptr %5, align 8, !tbaa !9
  %31 = call noundef zeroext i1 @_ZSteqIcSt11char_traitsIcESaIcEEbRKNSt7__cxx1112basic_stringIT_T0_T1_EEPKS5_(ptr noundef nonnull align 8 dereferenceable(32) %30, ptr noundef @.str.25)
  br i1 %31, label %32, label %33

32:                                               ; preds = %29, %26
  store i32 4, ptr %3, align 4
  br label %62

33:                                               ; preds = %29
  %34 = load ptr, ptr %5, align 8, !tbaa !9
  %35 = call noundef zeroext i1 @_ZSteqIcSt11char_traitsIcESaIcEEbRKNSt7__cxx1112basic_stringIT_T0_T1_EEPKS5_(ptr noundef nonnull align 8 dereferenceable(32) %34, ptr noundef @.str.26)
  br i1 %35, label %39, label %36

36:                                               ; preds = %33
  %37 = load ptr, ptr %5, align 8, !tbaa !9
  %38 = call noundef zeroext i1 @_ZSteqIcSt11char_traitsIcESaIcEEbRKNSt7__cxx1112basic_stringIT_T0_T1_EEPKS5_(ptr noundef nonnull align 8 dereferenceable(32) %37, ptr noundef @.str.27)
  br i1 %38, label %39, label %40

39:                                               ; preds = %36, %33
  store i32 5, ptr %3, align 4
  br label %62

40:                                               ; preds = %36
  %41 = load ptr, ptr %5, align 8, !tbaa !9
  %42 = call noundef zeroext i1 @_ZSteqIcSt11char_traitsIcESaIcEEbRKNSt7__cxx1112basic_stringIT_T0_T1_EEPKS5_(ptr noundef nonnull align 8 dereferenceable(32) %41, ptr noundef @.str.28)
  br i1 %42, label %46, label %43

43:                                               ; preds = %40
  %44 = load ptr, ptr %5, align 8, !tbaa !9
  %45 = call noundef zeroext i1 @_ZSteqIcSt11char_traitsIcESaIcEEbRKNSt7__cxx1112basic_stringIT_T0_T1_EEPKS5_(ptr noundef nonnull align 8 dereferenceable(32) %44, ptr noundef @.str.29)
  br i1 %45, label %46, label %47

46:                                               ; preds = %43, %40
  store i32 6, ptr %3, align 4
  br label %62

47:                                               ; preds = %43
  %48 = load ptr, ptr %5, align 8, !tbaa !9
  %49 = call noundef zeroext i1 @_ZSteqIcSt11char_traitsIcESaIcEEbRKNSt7__cxx1112basic_stringIT_T0_T1_EEPKS5_(ptr noundef nonnull align 8 dereferenceable(32) %48, ptr noundef @.str.30)
  br i1 %49, label %53, label %50

50:                                               ; preds = %47
  %51 = load ptr, ptr %5, align 8, !tbaa !9
  %52 = call noundef zeroext i1 @_ZSteqIcSt11char_traitsIcESaIcEEbRKNSt7__cxx1112basic_stringIT_T0_T1_EEPKS5_(ptr noundef nonnull align 8 dereferenceable(32) %51, ptr noundef @.str.31)
  br i1 %52, label %53, label %54

53:                                               ; preds = %50, %47
  store i32 9, ptr %3, align 4
  br label %62

54:                                               ; preds = %50
  %55 = load ptr, ptr %5, align 8, !tbaa !9
  %56 = call noundef zeroext i1 @_ZSteqIcSt11char_traitsIcESaIcEEbRKNSt7__cxx1112basic_stringIT_T0_T1_EEPKS5_(ptr noundef nonnull align 8 dereferenceable(32) %55, ptr noundef @.str.32)
  br i1 %56, label %60, label %57

57:                                               ; preds = %54
  %58 = load ptr, ptr %5, align 8, !tbaa !9
  %59 = call noundef zeroext i1 @_ZSteqIcSt11char_traitsIcESaIcEEbRKNSt7__cxx1112basic_stringIT_T0_T1_EEPKS5_(ptr noundef nonnull align 8 dereferenceable(32) %58, ptr noundef @.str.33)
  br i1 %59, label %60, label %61

60:                                               ; preds = %57, %54
  store i32 10, ptr %3, align 4
  br label %62

61:                                               ; preds = %57
  store i32 0, ptr %3, align 4
  br label %62

62:                                               ; preds = %61, %60, %53, %46, %39, %32, %25, %18, %11
  %63 = load i32, ptr %3, align 4
  ret i32 %63
}