; Function Attrs: mustprogress nounwind uwtable
define dso_local noundef range(i32 0, 11) i32 @_ZNK5draco9PlyReader21GetDataTypeFromStringERKNSt7__cxx1112basic_stringIcSt11char_traitsIcESaIcEEE(ptr nonnull readnone align 8 captures(none) %0, ptr noundef nonnull align 8 dereferenceable(32) %1) local_unnamed_addr #6 align 2 {
  %3 = tail call noundef i32 @_ZNKSt7__cxx1112basic_stringIcSt11char_traitsIcESaIcEE7compareEPKc(ptr noundef nonnull align 8 dereferenceable(32) %1, ptr noundef nonnull @.str.18) #24
  %4 = icmp eq i32 %3, 0
  br i1 %4, label %50, label %5

5:                                                ; preds = %2
  %6 = tail call noundef i32 @_ZNKSt7__cxx1112basic_stringIcSt11char_traitsIcESaIcEE7compareEPKc(ptr noundef nonnull align 8 dereferenceable(32) %1, ptr noundef nonnull @.str.19) #24
  %7 = icmp eq i32 %6, 0
  br i1 %7, label %50, label %8

8:                                                ; preds = %5
  %9 = tail call noundef i32 @_ZNKSt7__cxx1112basic_stringIcSt11char_traitsIcESaIcEE7compareEPKc(ptr noundef nonnull align 8 dereferenceable(32) %1, ptr noundef nonnull @.str.20) #24
  %10 = icmp eq i32 %9, 0
  br i1 %10, label %50, label %11

11:                                               ; preds = %8
  %12 = tail call noundef i32 @_ZNKSt7__cxx1112basic_stringIcSt11char_traitsIcESaIcEE7compareEPKc(ptr noundef nonnull align 8 dereferenceable(32) %1, ptr noundef nonnull @.str.21) #24
  %13 = icmp eq i32 %12, 0
  br i1 %13, label %50, label %14

14:                                               ; preds = %11
  %15 = tail call noundef i32 @_ZNKSt7__cxx1112basic_stringIcSt11char_traitsIcESaIcEE7compareEPKc(ptr noundef nonnull align 8 dereferenceable(32) %1, ptr noundef nonnull @.str.22) #24
  %16 = icmp eq i32 %15, 0
  br i1 %16, label %50, label %17

17:                                               ; preds = %14
  %18 = tail call noundef i32 @_ZNKSt7__cxx1112basic_stringIcSt11char_traitsIcESaIcEE7compareEPKc(ptr noundef nonnull align 8 dereferenceable(32) %1, ptr noundef nonnull @.str.23) #24
  %19 = icmp eq i32 %18, 0
  br i1 %19, label %50, label %20

20:                                               ; preds = %17
  %21 = tail call noundef i32 @_ZNKSt7__cxx1112basic_stringIcSt11char_traitsIcESaIcEE7compareEPKc(ptr noundef nonnull align 8 dereferenceable(32) %1, ptr noundef nonnull @.str.24) #24
  %22 = icmp eq i32 %21, 0
  br i1 %22, label %50, label %23

23:                                               ; preds = %20
  %24 = tail call noundef i32 @_ZNKSt7__cxx1112basic_stringIcSt11char_traitsIcESaIcEE7compareEPKc(ptr noundef nonnull align 8 dereferenceable(32) %1, ptr noundef nonnull @.str.25) #24
  %25 = icmp eq i32 %24, 0
  br i1 %25, label %50, label %26

26:                                               ; preds = %23
  %27 = tail call noundef i32 @_ZNKSt7__cxx1112basic_stringIcSt11char_traitsIcESaIcEE7compareEPKc(ptr noundef nonnull align 8 dereferenceable(32) %1, ptr noundef nonnull @.str.26) #24
  %28 = icmp eq i32 %27, 0
  br i1 %28, label %50, label %29

29:                                               ; preds = %26
  %30 = tail call noundef i32 @_ZNKSt7__cxx1112basic_stringIcSt11char_traitsIcESaIcEE7compareEPKc(ptr noundef nonnull align 8 dereferenceable(32) %1, ptr noundef nonnull @.str.27) #24
  %31 = icmp eq i32 %30, 0
  br i1 %31, label %50, label %32

32:                                               ; preds = %29
  %33 = tail call noundef i32 @_ZNKSt7__cxx1112basic_stringIcSt11char_traitsIcESaIcEE7compareEPKc(ptr noundef nonnull align 8 dereferenceable(32) %1, ptr noundef nonnull @.str.28) #24
  %34 = icmp eq i32 %33, 0
  br i1 %34, label %50, label %35

35:                                               ; preds = %32
  %36 = tail call noundef i32 @_ZNKSt7__cxx1112basic_stringIcSt11char_traitsIcESaIcEE7compareEPKc(ptr noundef nonnull align 8 dereferenceable(32) %1, ptr noundef nonnull @.str.29) #24
  %37 = icmp eq i32 %36, 0
  br i1 %37, label %50, label %38

38:                                               ; preds = %35
  %39 = tail call noundef i32 @_ZNKSt7__cxx1112basic_stringIcSt11char_traitsIcESaIcEE7compareEPKc(ptr noundef nonnull align 8 dereferenceable(32) %1, ptr noundef nonnull @.str.30) #24
  %40 = icmp eq i32 %39, 0
  br i1 %40, label %50, label %41

41:                                               ; preds = %38
  %42 = tail call noundef i32 @_ZNKSt7__cxx1112basic_stringIcSt11char_traitsIcESaIcEE7compareEPKc(ptr noundef nonnull align 8 dereferenceable(32) %1, ptr noundef nonnull @.str.31) #24
  %43 = icmp eq i32 %42, 0
  br i1 %43, label %50, label %44

44:                                               ; preds = %41
  %45 = tail call noundef i32 @_ZNKSt7__cxx1112basic_stringIcSt11char_traitsIcESaIcEE7compareEPKc(ptr noundef nonnull align 8 dereferenceable(32) %1, ptr noundef nonnull @.str.32) #24
  %46 = icmp eq i32 %45, 0
  br i1 %46, label %50, label %47

47:                                               ; preds = %44
  %48 = tail call noundef i32 @_ZNKSt7__cxx1112basic_stringIcSt11char_traitsIcESaIcEE7compareEPKc(ptr noundef nonnull align 8 dereferenceable(32) %1, ptr noundef nonnull @.str.33) #24
  %49 = icmp eq i32 %48, 0
  %spec.select = select i1 %49, i32 10, i32 0
  br label %50

50:                                               ; preds = %47, %44, %38, %41, %32, %35, %26, %29, %20, %23, %14, %17, %8, %11, %2, %5
  %.0 = phi i32 [ 1, %5 ], [ 1, %2 ], [ 2, %11 ], [ 2, %8 ], [ 3, %17 ], [ 3, %14 ], [ 4, %23 ], [ 4, %20 ], [ 5, %29 ], [ 5, %26 ], [ 6, %35 ], [ 6, %32 ], [ 9, %41 ], [ 9, %38 ], [ 10, %44 ], [ %spec.select, %47 ]
  ret i32 %.0
}